target datalayout = "e-m:e-p270:32:32-p271:32:32-p272:64:64-i64:64-i128:128-f80:128-n8:16:32:64-S128"
target triple = "x86_64-pc-linux-gnu"

%"class.llvm::SDValue" = type <{ ptr, i32, [4 x i8] }>
%"struct.llvm::EVT" = type { %"class.llvm::MVT", ptr }
%"class.llvm::MVT" = type { i16 }
%"class.llvm::DebugLoc" = type { %"class.llvm::TypedTrackingMDRef" }
%"class.llvm::TypedTrackingMDRef" = type { %"class.llvm::TrackingMDRef" }
%"class.llvm::TrackingMDRef" = type { ptr }
%"struct.llvm::SDNodeFlags" = type { i16 }
%"class.llvm::SDNode" = type { %"class.llvm::FoldingSetBase::Node", %"class.llvm::ilist_node", i32, %"struct.llvm::SDNodeFlags", %union.anon, i16, i32, ptr, ptr, ptr, i16, i16, i32, %"class.llvm::DebugLoc", i32, i32 }
%"class.llvm::FoldingSetBase::Node" = type { ptr }
%"class.llvm::ilist_node" = type { %"class.llvm::ilist_node_impl" }
%"class.llvm::ilist_node_impl" = type { %"class.llvm::ilist_node_base" }
%"class.llvm::ilist_node_base" = type { %"class.llvm::ilist_detail::node_base_prevnext" }
%"class.llvm::ilist_detail::node_base_prevnext" = type { ptr, ptr }
%union.anon = type { %"class.llvm::SDNode::LSBaseSDNodeBitfields" }
%"class.llvm::SDNode::LSBaseSDNodeBitfields" = type { i16 }

; Function Attrs: mustprogress nounwind uwtable
define linkonce_odr hidden noundef zeroext i1 @_ZNK4llvm3MVT9isIntegerEv(ptr noundef nonnull align 2 dereferenceable(2) %0) #0 comdat align 2 {
  %2 = alloca ptr, align 8
  store ptr %0, ptr %2, align 8
  %3 = load ptr, ptr %2, align 8
  %4 = getelementptr inbounds nuw %"class.llvm::MVT", ptr %3, i32 0, i32 0
  %5 = load i16, ptr %4, align 2
  %6 = zext i16 %5 to i32
  %7 = icmp sge i32 %6, 2
  br i1 %7, label %8, label %13

8:                                                ; preds = %1
  %9 = getelementptr inbounds nuw %"class.llvm::MVT", ptr %3, i32 0, i32 0
  %10 = load i16, ptr %9, align 2
  %11 = zext i16 %10 to i32
  %12 = icmp sle i32 %11, 9
  br i1 %12, label %35, label %13

13:                                               ; preds = %8, %1
  %14 = getelementptr inbounds nuw %"class.llvm::MVT", ptr %3, i32 0, i32 0
  %15 = load i16, ptr %14, align 2
  %16 = zext i16 %15 to i32
  %17 = icmp sge i32 %16, 17
  br i1 %17, label %18, label %23

18:                                               ; preds = %13
  %19 = getelementptr inbounds nuw %"class.llvm::MVT", ptr %3, i32 0, i32 0
  %20 = load i16, ptr %19, align 2
  %21 = zext i16 %20 to i32
  %22 = icmp sle i32 %21, 87
  br i1 %22, label %35, label %23

23:                                               ; preds = %18, %13
  %24 = getelementptr inbounds nuw %"class.llvm::MVT", ptr %3, i32 0, i32 0
  %25 = load i16, ptr %24, align 2
  %26 = zext i16 %25 to i32
  %27 = icmp sge i32 %26, 137
  br i1 %27, label %28, label %33

28:                                               ; preds = %23
  %29 = getelementptr inbounds nuw %"class.llvm::MVT", ptr %3, i32 0, i32 0
  %30 = load i16, ptr %29, align 2
  %31 = zext i16 %30 to i32
  %32 = icmp sle i32 %31, 168
  br label %33

33:                                               ; preds = %28, %23
  %34 = phi i1 [ false, %23 ], [ %32, %28 ]
  br label %35

35:                                               ; preds = %33, %18, %8
  %36 = phi i1 [ true, %18 ], [ true, %8 ], [ %34, %33 ]
  ret i1 %36
}

; Function Attrs: mustprogress nounwind uwtable
define linkonce_odr hidden noundef zeroext i1 @_ZNK4llvm3EVT8isSimpleEv(ptr noundef nonnull align 8 dereferenceable(16) %0) #0 comdat align 2 {
  %2 = alloca ptr, align 8
  store ptr %0, ptr %2, align 8
  %3 = load ptr, ptr %2, align 8
  %4 = getelementptr inbounds nuw %"struct.llvm::EVT", ptr %3, i32 0, i32 0
  %5 = getelementptr inbounds nuw %"class.llvm::MVT", ptr %4, i32 0, i32 0
  %6 = load i16, ptr %5, align 8
  %7 = zext i16 %6 to i32
  %8 = icmp ne i32 %7, 0
  ret i1 %8
}

; Function Attrs: mustprogress nounwind uwtable
define linkonce_odr hidden { i16, ptr } @_ZNK4llvm6SDNode12getValueTypeEj(ptr noundef nonnull align 8 dereferenceable(88) %0, i32 noundef %1) #0 comdat align 2 {
  %3 = alloca %"struct.llvm::EVT", align 8
  %4 = alloca ptr, align 8
  %5 = alloca i32, align 4
  store ptr %0, ptr %4, align 8
  store i32 %1, ptr %5, align 4
  %6 = load ptr, ptr %4, align 8
  %7 = getelementptr inbounds nuw %"class.llvm::SDNode", ptr %6, i32 0, i32 8
  %8 = load ptr, ptr %7, align 8
  %9 = load i32, ptr %5, align 4
  %10 = zext i32 %9 to i64
  %11 = getelementptr inbounds %"struct.llvm::EVT", ptr %8, i64 %10
  call void @llvm.memcpy.p0.p0.i64(ptr align 8 %3, ptr align 8 %11, i64 16, i1 false)
  %12 = load { i16, ptr }, ptr %3, align 8
  ret { i16, ptr } %12
}

; Function Attrs: mustprogress nounwind uwtable
define linkonce_odr hidden noundef zeroext i1 @_ZNK4llvm3EVT9isIntegerEv(ptr noundef nonnull align 8 dereferenceable(16) %0) #0 comdat align 2 {
  %2 = alloca ptr, align 8
  store ptr %0, ptr %2, align 8
  %3 = load ptr, ptr %2, align 8
  %4 = call noundef zeroext i1 @_ZNK4llvm3EVT8isSimpleEv(ptr noundef nonnull align 8 dereferenceable(16) %3)
  br i1 %4, label %5, label %8

5:                                                ; preds = %1
  %6 = getelementptr inbounds nuw %"struct.llvm::EVT", ptr %3, i32 0, i32 0
  %7 = call noundef zeroext i1 @_ZNK4llvm3MVT9isIntegerEv(ptr noundef nonnull align 2 dereferenceable(2) %6)
  br label %10

8:                                                ; preds = %1
  %9 = call noundef zeroext i1 @_ZNK4llvm3EVT17isExtendedIntegerEv(ptr noundef nonnull align 8 dereferenceable(16) %3) #9
  br label %10

10:                                               ; preds = %8, %5
  %11 = phi i1 [ %7, %5 ], [ %9, %8 ]
  ret i1 %11
}

; Function Attrs: mustprogress nounwind uwtable
define linkonce_odr hidden { i16, ptr } @_ZNK4llvm7SDValue12getValueTypeEv(ptr noundef nonnull align 8 dereferenceable(12) %0) #0 comdat align 2 {
  %2 = alloca %"struct.llvm::EVT", align 8
  %3 = alloca ptr, align 8
  store ptr %0, ptr %3, align 8
  %4 = load ptr, ptr %3, align 8
  %5 = getelementptr inbounds nuw %"class.llvm::SDValue", ptr %4, i32 0, i32 0
  %6 = load ptr, ptr %5, align 8
  %7 = getelementptr inbounds nuw %"class.llvm::SDValue", ptr %4, i32 0, i32 1
  %8 = load i32, ptr %7, align 8
  %9 = call { i16, ptr } @_ZNK4llvm6SDNode12getValueTypeEj(ptr noundef nonnull align 8 dereferenceable(88) %6, i32 noundef %8)
  %10 = getelementptr inbounds nuw { i16, ptr }, ptr %2, i32 0, i32 0
  %11 = extractvalue { i16, ptr } %9, 0
  store i16 %11, ptr %10, align 8
  %12 = getelementptr inbounds nuw { i16, ptr }, ptr %2, i32 0, i32 1
  %13 = extractvalue { i16, ptr } %9, 1
  store ptr %13, ptr %12, align 8
  %14 = load { i16, ptr }, ptr %2, align 8
  ret { i16, ptr } %14
}

; Function Attrs: mustprogress nounwind uwtable
define linkonce_odr hidden void @_ZN4llvm16DAGTypeLegalizer13GetExpandedOpENS_7SDValueERS1_S2_(ptr noundef nonnull align 8 dereferenceable(2512) %0, ptr %1, i32 %2, ptr noundef nonnull align 8 dereferenceable(12) %3, ptr noundef nonnull align 8 dereferenceable(12) %4) #0 comdat align 2 {
  %6 = alloca %"class.llvm::SDValue", align 8
  %7 = alloca ptr, align 8
  %8 = alloca ptr, align 8
  %9 = alloca ptr, align 8
  %10 = alloca %"struct.llvm::EVT", align 8
  %11 = alloca %"class.llvm::SDValue", align 8
  %12 = alloca %"class.llvm::SDValue", align 8
  %13 = getelementptr inbounds nuw { ptr, i32 }, ptr %6, i32 0, i32 0
  store ptr %1, ptr %13, align 8
  %14 = getelementptr inbounds nuw { ptr, i32 }, ptr %6, i32 0, i32 1
  store i32 %2, ptr %14, align 8
  store ptr %0, ptr %7, align 8
  store ptr %3, ptr %8, align 8
  store ptr %4, ptr %9, align 8
  %15 = load ptr, ptr %7, align 8
  %16 = call { i16, ptr } @_ZNK4llvm7SDValue12getValueTypeEv(ptr noundef nonnull align 8 dereferenceable(12) %6)
  %17 = getelementptr inbounds nuw { i16, ptr }, ptr %10, i32 0, i32 0
  %18 = extractvalue { i16, ptr } %16, 0
  store i16 %18, ptr %17, align 8
  %19 = getelementptr inbounds nuw { i16, ptr }, ptr %10, i32 0, i32 1
  %20 = extractvalue { i16, ptr } %16, 1
  store ptr %20, ptr %19, align 8
  %21 = call noundef zeroext i1 @_ZNK4llvm3EVT9isIntegerEv(ptr noundef nonnull align 8 dereferenceable(16) %10)
  br i1 %21, label %22, label %29

22:                                               ; preds = %5
  call void @llvm.memcpy.p0.p0.i64(ptr align 8 %11, ptr align 8 %6, i64 16, i1 false)
  %23 = load ptr, ptr %8, align 8
  %24 = load ptr, ptr %9, align 8
  %25 = getelementptr inbounds nuw { ptr, i32 }, ptr %11, i32 0, i32 0
  %26 = load ptr, ptr %25, align 8
  %27 = getelementptr inbounds nuw { ptr, i32 }, ptr %11, i32 0, i32 1
  %28 = load i32, ptr %27, align 8
  call void @_ZN4llvm16DAGTypeLegalizer18GetExpandedIntegerENS_7SDValueERS1_S2_(ptr noundef nonnull align 8 dereferenceable(2512) %15, ptr %26, i32 %28, ptr noundef nonnull align 8 dereferenceable(12) %23, ptr noundef nonnull align 8 dereferenceable(12) %24)
  br label %36

29:                                               ; preds = %5
  call void @llvm.memcpy.p0.p0.i64(ptr align 8 %12, ptr align 8 %6, i64 16, i1 false)
  %30 = load ptr, ptr %8, align 8
  %31 = load ptr, ptr %9, align 8
  %32 = getelementptr inbounds nuw { ptr, i32 }, ptr %12, i32 0, i32 0
  %33 = load ptr, ptr %32, align 8
  %34 = getelementptr inbounds nuw { ptr, i32 }, ptr %12, i32 0, i32 1
  %35 = load i32, ptr %34, align 8
  call void @_ZN4llvm16DAGTypeLegalizer16GetExpandedFloatENS_7SDValueERS1_S2_(ptr noundef nonnull align 8 dereferenceable(2512) %15, ptr %33, i32 %35, ptr noundef nonnull align 8 dereferenceable(12) %30, ptr noundef nonnull align 8 dereferenceable(12) %31)
  br label %36

36:                                               ; preds = %29, %22
  ret void
}

; Function Attrs: mustprogress nounwind uwtable
define hidden void @_ZN4llvm16DAGTypeLegalizer22ExpandRes_MERGE_VALUESEPNS_6SDNodeEjRNS_7SDValueES4_(ptr noundef nonnull align 8 dereferenceable(2512) %0, ptr noundef %1, i32 noundef %2, ptr noundef nonnull align 8 dereferenceable(12) %3, ptr noundef nonnull align 8 dereferenceable(12) %4) #0 align 2 {
  %6 = alloca ptr, align 8
  %7 = alloca ptr, align 8
  %8 = alloca i32, align 4
  %9 = alloca ptr, align 8
  %10 = alloca ptr, align 8
  %11 = alloca %"class.llvm::SDValue", align 8
  %12 = alloca { ptr, i32 }, align 8
  %13 = alloca %"class.llvm::SDValue", align 8
  store ptr %0, ptr %6, align 8
  store ptr %1, ptr %7, align 8
  store i32 %2, ptr %8, align 4
  store ptr %3, ptr %9, align 8
  store ptr %4, ptr %10, align 8
  %14 = load ptr, ptr %6, align 8
  %15 = load ptr, ptr %7, align 8
  %16 = load i32, ptr %8, align 4
  %17 = call { ptr, i32 } @_ZN4llvm16DAGTypeLegalizer24DisintegrateMERGE_VALUESEPNS_6SDNodeEj(ptr noundef nonnull align 8 dereferenceable(2512) %14, ptr noundef %15, i32 noundef %16)
  store { ptr, i32 } %17, ptr %12, align 8
  call void @llvm.memcpy.p0.p0.i64(ptr align 8 %11, ptr align 8 %12, i64 12, i1 false)
  call void @llvm.memcpy.p0.p0.i64(ptr align 8 %13, ptr align 8 %11, i64 16, i1 false)
  %18 = load ptr, ptr %9, align 8
  %19 = load ptr, ptr %10, align 8
  %20 = getelementptr inbounds nuw { ptr, i32 }, ptr %13, i32 0, i32 0
  %21 = load ptr, ptr %20, align 8
  %22 = getelementptr inbounds nuw { ptr, i32 }, ptr %13, i32 0, i32 1
  %23 = load i32, ptr %22, align 8
  call void @_ZN4llvm16DAGTypeLegalizer13GetExpandedOpENS_7SDValueERS1_S2_(ptr noundef nonnull align 8 dereferenceable(2512) %14, ptr %21, i32 %23, ptr noundef nonnull align 8 dereferenceable(12) %18, ptr noundef nonnull align 8 dereferenceable(12) %19)
  ret void
}