; Function Attrs: mustprogress nounwind uwtable
define hidden void @_ZN4llvm16DAGTypeLegalizer22ExpandRes_MERGE_VALUESEPNS_6SDNodeEjRNS_7SDValueES4_(ptr noundef nonnull align 8 dereferenceable(2512) %0, ptr noundef %1, i32 noundef %2, ptr noundef nonnull align 8 dereferenceable(12) %3, ptr noundef nonnull align 8 dereferenceable(12) %4) local_unnamed_addr #0 align 2 {
  %6 = alloca %"struct.llvm::EVT", align 8
  %7 = tail call { ptr, i32 } @_ZN4llvm16DAGTypeLegalizer24DisintegrateMERGE_VALUESEPNS_6SDNodeEj(ptr noundef nonnull align 8 dereferenceable(2512) %0, ptr noundef %1, i32 noundef %2) #12
  %.fca.0.extract = extractvalue { ptr, i32 } %7, 0
  %.fca.1.extract = extractvalue { ptr, i32 } %7, 1
  call void @llvm.lifetime.start.p0(i64 16, ptr nonnull %6)
  %8 = getelementptr inbounds nuw i8, ptr %.fca.0.extract, i64 48
  %9 = load ptr, ptr %8, align 8
  %10 = zext i32 %.fca.1.extract to i64
  %11 = getelementptr inbounds nuw %"struct.llvm::EVT", ptr %9, i64 %10
  %.sroa.0.0.copyload.i.i.i = load i16, ptr %11, align 8
  %.sroa.21.0..sroa_idx.i.i.i = getelementptr inbounds nuw i8, ptr %11, i64 8
  %.sroa.21.0.copyload.i.i.i = load ptr, ptr %.sroa.21.0..sroa_idx.i.i.i, align 8
  store i16 %.sroa.0.0.copyload.i.i.i, ptr %6, align 8
  %12 = getelementptr inbounds nuw i8, ptr %6, i64 8
  store ptr %.sroa.21.0.copyload.i.i.i, ptr %12, align 8
  %.not.i.i = icmp eq i16 %.sroa.0.0.copyload.i.i.i, 0
  br i1 %.not.i.i, label %17, label %13

13:                                               ; preds = %5
  %14 = add i16 %.sroa.0.0.copyload.i.i.i, -2
  %or.cond.i.i.i = icmp ult i16 %14, 8
  %15 = add i16 %.sroa.0.0.copyload.i.i.i, -17
  %or.cond3.i.i.i = icmp ult i16 %15, 71
  %or.cond4.i.i.i = or i1 %or.cond.i.i.i, %or.cond3.i.i.i
  %16 = add i16 %.sroa.0.0.copyload.i.i.i, -137
  %spec.select.i.i.i = icmp ult i16 %16, 32
  %or.cond.i = or i1 %spec.select.i.i.i, %or.cond4.i.i.i
  br i1 %or.cond.i, label %_ZNK4llvm3EVT9isIntegerEv.exit.thread.i, label %19

17:                                               ; preds = %5
  %18 = call noundef zeroext i1 @_ZNK4llvm3EVT17isExtendedIntegerEv(ptr noundef nonnull align 8 dereferenceable(16) %6) #13
  br i1 %18, label %_ZNK4llvm3EVT9isIntegerEv.exit.thread.i, label %19

_ZNK4llvm3EVT9isIntegerEv.exit.thread.i:          ; preds = %17, %13
  call void @_ZN4llvm16DAGTypeLegalizer18GetExpandedIntegerENS_7SDValueERS1_S2_(ptr noundef nonnull align 8 dereferenceable(2512) %0, ptr nonnull %.fca.0.extract, i32 %.fca.1.extract, ptr noundef nonnull align 8 dereferenceable(12) %3, ptr noundef nonnull align 8 dereferenceable(12) %4) #12
  br label %_ZN4llvm16DAGTypeLegalizer13GetExpandedOpENS_7SDValueERS1_S2_.exit

19:                                               ; preds = %17, %13
  call void @_ZN4llvm16DAGTypeLegalizer16GetExpandedFloatENS_7SDValueERS1_S2_(ptr noundef nonnull align 8 dereferenceable(2512) %0, ptr nonnull %.fca.0.extract, i32 %.fca.1.extract, ptr noundef nonnull align 8 dereferenceable(12) %3, ptr noundef nonnull align 8 dereferenceable(12) %4) #12
  br label %_ZN4llvm16DAGTypeLegalizer13GetExpandedOpENS_7SDValueERS1_S2_.exit

_ZN4llvm16DAGTypeLegalizer13GetExpandedOpENS_7SDValueERS1_S2_.exit: ; preds = %_ZNK4llvm3EVT9isIntegerEv.exit.thread.i, %19
  call void @llvm.lifetime.end.p0(i64 16, ptr nonnull %6)
  ret void
}